target datalayout = "e-m:e-p270:32:32-p271:32:32-p272:64:64-i64:64-i128:128-f80:128-n8:16:32:64-S128"
target triple = "x86_64-pc-linux-gnu"

%struct.slurm_conf_t = type { i64, ptr, i16, ptr, ptr, ptr, ptr, ptr, i16, ptr, ptr, ptr, ptr, ptr, ptr, ptr, i16, ptr, ptr, ptr, ptr, i16, ptr, ptr, ptr, i64, ptr, ptr, ptr, ptr, i16, ptr, ptr, i16, i32, ptr, i32, ptr, i32, i32, ptr, ptr, i64, i64, ptr, i16, i16, ptr, i32, i32, ptr, i32, ptr, i32, i16, i16, i16, ptr, i16, i16, ptr, ptr, i32, i16, i16, ptr, i32, i16, ptr, ptr, ptr, ptr, i16, ptr, ptr, ptr, ptr, i32, ptr, ptr, ptr, ptr, i16, i16, ptr, i32, i32, i32, i16, i16, ptr, ptr, i16, ptr, ptr, i32, i32, i32, i32, i32, i64, i32, i32, i16, ptr, ptr, i32, ptr, ptr, ptr, i16, i32, ptr, ptr, i16, ptr, ptr, i32, i16, ptr, ptr, ptr, ptr, i32, i32, i16, i16, i32, ptr, i16, ptr, i32, i32, i32, i32, i32, i32, ptr, i16, ptr, ptr, i32, i16, ptr, i32, i16, i16, ptr, ptr, ptr, i16, ptr, ptr, ptr, ptr, i16, i16, ptr, i16, ptr, i16, ptr, i16, ptr, i16, ptr, ptr, ptr, ptr, i16, ptr, ptr, ptr, i32, ptr, i32, ptr, ptr, i16, ptr, ptr, i32, i16, ptr, ptr, i16, i16, ptr, i16, ptr, ptr, ptr, i32, ptr, i16, i16, ptr, ptr, ptr, ptr, ptr, ptr, ptr, ptr, i16, i32, i16, ptr, ptr, ptr, ptr, i32, ptr, ptr, ptr, i16, ptr, ptr, ptr, i16, ptr, i16, ptr, i16, i16, ptr }
%union.pthread_mutex_t = type { %struct.__pthread_mutex_s }
%struct.__pthread_mutex_s = type { i32, i32, i32, i32, i32, i16, i16, %struct.__pthread_internal_list }
%struct.__pthread_internal_list = type { ptr, ptr }
%union.pthread_attr_t = type { i64, [48 x i8] }

@slurm_conf = external global %struct.slurm_conf_t, align 8
@timeslicer_thread_id = internal global i64 0, align 8
@.str = private unnamed_addr constant [29 x i8] c"GANG: gang: entering gs_init\00", align 1
@timeslicer_seconds = internal global i32 0, align 4
@gr_type = internal global i16 0, align 2
@preempt_job_list = internal global ptr null, align 8
@data_mutex = internal global %union.pthread_mutex_t zeroinitializer, align 8
@.str.1 = private unnamed_addr constant [29 x i8] c"%s: pthread_mutex_lock(): %m\00", align 1
@__func__.gs_init = private unnamed_addr constant [8 x i8] c"gs_init\00", align 1
@.str.2 = private unnamed_addr constant [31 x i8] c"%s: pthread_mutex_unlock(): %m\00", align 1
@.str.3 = private unnamed_addr constant [28 x i8] c"GANG: gang: leaving gs_init\00", align 1
@thread_flag_mutex = internal global %union.pthread_mutex_t zeroinitializer, align 8
@thread_running = internal global i8 0, align 1
@.str.17 = private unnamed_addr constant [10 x i8] c"task/none\00", align 1
@__func__._spawn_timeslicer_thread = private unnamed_addr constant [25 x i8] c"_spawn_timeslicer_thread\00", align 1
@.str.21 = private unnamed_addr constant [56 x i8] c"timeslicer thread already running, not starting another\00", align 1
@.str.22 = private unnamed_addr constant [22 x i8] c"pthread_attr_init: %m\00", align 1
@.str.23 = private unnamed_addr constant [26 x i8] c"pthread_attr_setscope: %m\00", align 1
@.str.24 = private unnamed_addr constant [30 x i8] c"pthread_attr_setstacksize: %m\00", align 1
@.str.25 = private unnamed_addr constant [28 x i8] c"%s: pthread_create error %m\00", align 1
@.str.26 = private unnamed_addr constant [55 x i8] c"pthread_attr_destroy failed, possible memory leak!: %m\00", align 1

; Function Attrs: nounwind uwtable
define internal void @_spawn_timeslicer_thread() #0 {
  %1 = alloca i32, align 4
  %2 = alloca i32, align 4
  %3 = alloca %union.pthread_attr_t, align 8
  %4 = alloca i32, align 4
  %5 = alloca i32, align 4
  %6 = alloca i32, align 4
  %7 = alloca i32, align 4
  br label %8

8:                                                ; preds = %0
  call void @llvm.lifetime.start.p0(i64 4, ptr %1) #8
  %9 = call i32 @pthread_mutex_lock(ptr noundef @thread_flag_mutex) #8
  store i32 %9, ptr %1, align 4
  %10 = load i32, ptr %1, align 4
  %11 = icmp ne i32 %10, 0
  br i1 %11, label %12, label %15

12:                                               ; preds = %8
  %13 = load i32, ptr %1, align 4
  %14 = call ptr @__errno_location() #9
  store i32 %13, ptr %14, align 4
  call void (ptr, ...) @fatal_abort(ptr noundef @.str.1, ptr noundef @__func__._spawn_timeslicer_thread) #10
  unreachable

15:                                               ; preds = %8
  call void @llvm.lifetime.end.p0(i64 4, ptr %1) #8
  br label %16

16:                                               ; preds = %15
  %17 = load i8, ptr @thread_running, align 1, !range !12, !noundef !13
  %18 = trunc i8 %17 to i1
  br i1 %18, label %19, label %30

19:                                               ; preds = %16
  %20 = call i32 (ptr, ...) @error(ptr noundef @.str.21)
  br label %21

21:                                               ; preds = %19
  call void @llvm.lifetime.start.p0(i64 4, ptr %2) #8
  %22 = call i32 @pthread_mutex_unlock(ptr noundef @thread_flag_mutex) #8
  store i32 %22, ptr %2, align 4
  %23 = load i32, ptr %2, align 4
  %24 = icmp ne i32 %23, 0
  br i1 %24, label %25, label %28

25:                                               ; preds = %21
  %26 = load i32, ptr %2, align 4
  %27 = call ptr @__errno_location() #9
  store i32 %26, ptr %27, align 4
  call void (ptr, ...) @fatal_abort(ptr noundef @.str.2, ptr noundef @__func__._spawn_timeslicer_thread) #10
  unreachable

28:                                               ; preds = %21
  call void @llvm.lifetime.end.p0(i64 4, ptr %2) #8
  br label %29

29:                                               ; preds = %28
  br label %85

30:                                               ; preds = %16
  br label %31

31:                                               ; preds = %30
  call void @llvm.lifetime.start.p0(i64 56, ptr %3) #8
  call void @llvm.lifetime.start.p0(i64 4, ptr %4) #8
  br label %32

32:                                               ; preds = %31
  call void @llvm.lifetime.start.p0(i64 4, ptr %5) #8
  %33 = call i32 @pthread_attr_init(ptr noundef %3) #8
  store i32 %33, ptr %5, align 4
  %34 = load i32, ptr %5, align 4
  %35 = icmp ne i32 %34, 0
  br i1 %35, label %36, label %39

36:                                               ; preds = %32
  %37 = load i32, ptr %5, align 4
  %38 = call ptr @__errno_location() #9
  store i32 %37, ptr %38, align 4
  call void (ptr, ...) @fatal(ptr noundef @.str.22) #10
  unreachable

39:                                               ; preds = %32
  %40 = call i32 @pthread_attr_setscope(ptr noundef %3, i32 noundef 0) #8
  store i32 %40, ptr %5, align 4
  %41 = load i32, ptr %5, align 4
  %42 = icmp ne i32 %41, 0
  br i1 %42, label %43, label %47

43:                                               ; preds = %39
  %44 = load i32, ptr %5, align 4
  %45 = call ptr @__errno_location() #9
  store i32 %44, ptr %45, align 4
  %46 = call i32 (ptr, ...) @error(ptr noundef @.str.23)
  br label %47

47:                                               ; preds = %43, %39
  %48 = call i32 @pthread_attr_setstacksize(ptr noundef %3, i64 noundef 1048576) #8
  store i32 %48, ptr %5, align 4
  %49 = load i32, ptr %5, align 4
  %50 = icmp ne i32 %49, 0
  br i1 %50, label %51, label %55

51:                                               ; preds = %47
  %52 = load i32, ptr %5, align 4
  %53 = call ptr @__errno_location() #9
  store i32 %52, ptr %53, align 4
  %54 = call i32 (ptr, ...) @error(ptr noundef @.str.24)
  br label %55

55:                                               ; preds = %51, %47
  call void @llvm.lifetime.end.p0(i64 4, ptr %5) #8
  br label %56

56:                                               ; preds = %55
  br label %57

57:                                               ; preds = %56
  %58 = call i32 @pthread_create(ptr noundef @timeslicer_thread_id, ptr noundef %3, ptr noundef @_timeslicer_thread, ptr noundef null) #8
  store i32 %58, ptr %4, align 4
  %59 = load i32, ptr %4, align 4
  %60 = icmp ne i32 %59, 0
  br i1 %60, label %61, label %64

61:                                               ; preds = %57
  %62 = load i32, ptr %4, align 4
  %63 = call ptr @__errno_location() #9
  store i32 %62, ptr %63, align 4
  call void (ptr, ...) @fatal(ptr noundef @.str.25, ptr noundef @__func__._spawn_timeslicer_thread) #10
  unreachable

64:                                               ; preds = %57
  br label %65

65:                                               ; preds = %64
  call void @llvm.lifetime.start.p0(i64 4, ptr %6) #8
  %66 = call i32 @pthread_attr_destroy(ptr noundef %3) #8
  store i32 %66, ptr %6, align 4
  %67 = load i32, ptr %6, align 4
  %68 = icmp ne i32 %67, 0
  br i1 %68, label %69, label %73

69:                                               ; preds = %65
  %70 = load i32, ptr %6, align 4
  %71 = call ptr @__errno_location() #9
  store i32 %70, ptr %71, align 4
  %72 = call i32 (ptr, ...) @error(ptr noundef @.str.26)
  br label %73

73:                                               ; preds = %69, %65
  call void @llvm.lifetime.end.p0(i64 4, ptr %6) #8
  br label %74

74:                                               ; preds = %73
  br label %75

75:                                               ; preds = %74
  call void @llvm.lifetime.end.p0(i64 4, ptr %4) #8
  call void @llvm.lifetime.end.p0(i64 56, ptr %3) #8
  br label %76

76:                                               ; preds = %75
  store i8 1, ptr @thread_running, align 1
  br label %77

77:                                               ; preds = %76
  call void @llvm.lifetime.start.p0(i64 4, ptr %7) #8
  %78 = call i32 @pthread_mutex_unlock(ptr noundef @thread_flag_mutex) #8
  store i32 %78, ptr %7, align 4
  %79 = load i32, ptr %7, align 4
  %80 = icmp ne i32 %79, 0
  br i1 %80, label %81, label %84

81:                                               ; preds = %77
  %82 = load i32, ptr %7, align 4
  %83 = call ptr @__errno_location() #9
  store i32 %82, ptr %83, align 4
  call void (ptr, ...) @fatal_abort(ptr noundef @.str.2, ptr noundef @__func__._spawn_timeslicer_thread) #10
  unreachable

84:                                               ; preds = %77
  call void @llvm.lifetime.end.p0(i64 4, ptr %7) #8
  br label %85

85:                                               ; preds = %29, %84
  ret void
}

; Function Attrs: nounwind uwtable
define internal zeroext i16 @_get_gr_type() #0 {
  %1 = alloca i16, align 2
  %2 = load i16, ptr getelementptr inbounds nuw (%struct.slurm_conf_t, ptr @slurm_conf, i32 0, i32 169), align 8
  %3 = zext i16 %2 to i32
  %4 = and i32 %3, 4
  %5 = icmp ne i32 %4, 0
  br i1 %5, label %6, label %7

6:                                                ; preds = %0
  store i16 2, ptr %1, align 2
  br label %25

7:                                                ; preds = %0
  %8 = load i16, ptr getelementptr inbounds nuw (%struct.slurm_conf_t, ptr @slurm_conf, i32 0, i32 169), align 8
  %9 = zext i16 %8 to i32
  %10 = and i32 %9, 1
  %11 = icmp ne i32 %10, 0
  br i1 %11, label %12, label %18

12:                                               ; preds = %7
  %13 = load ptr, ptr getelementptr inbounds nuw (%struct.slurm_conf_t, ptr @slurm_conf, i32 0, i32 210), align 8
  %14 = call i32 @xstrcmp(ptr noundef %13, ptr noundef @.str.17)
  %15 = icmp ne i32 %14, 0
  br i1 %15, label %17, label %16

16:                                               ; preds = %12
  store i16 3, ptr %1, align 2
  br label %25

17:                                               ; preds = %12
  store i16 4, ptr %1, align 2
  br label %25

18:                                               ; preds = %7
  %19 = load i16, ptr getelementptr inbounds nuw (%struct.slurm_conf_t, ptr @slurm_conf, i32 0, i32 169), align 8
  %20 = zext i16 %19 to i32
  %21 = and i32 %20, 2
  %22 = icmp ne i32 %21, 0
  br i1 %22, label %23, label %24

23:                                               ; preds = %18
  store i16 1, ptr %1, align 2
  br label %25

24:                                               ; preds = %18
  store i16 0, ptr %1, align 2
  br label %25

25:                                               ; preds = %24, %23, %17, %16, %6
  %26 = load i16, ptr %1, align 2
  ret i16 %26
}

; Function Attrs: nounwind uwtable
define dso_local void @gs_init() #0 {
  %1 = alloca i32, align 4
  %2 = alloca i32, align 4
  %3 = load i16, ptr getelementptr inbounds nuw (%struct.slurm_conf_t, ptr @slurm_conf, i32 0, i32 118), align 4
  %4 = zext i16 %3 to i32
  %5 = and i32 %4, 32768
  %6 = icmp ne i32 %5, 0
  br i1 %6, label %8, label %7

7:                                                ; preds = %0
  br label %60

8:                                                ; preds = %0
  %9 = load i64, ptr @timeslicer_thread_id, align 8
  %10 = icmp ne i64 %9, 0
  br i1 %10, label %11, label %12

11:                                               ; preds = %8
  br label %60

12:                                               ; preds = %8
  br label %13

13:                                               ; preds = %12
  %14 = load i64, ptr getelementptr inbounds nuw (%struct.slurm_conf_t, ptr @slurm_conf, i32 0, i32 42), align 8
  %15 = and i64 %14, 8192
  %16 = icmp ne i64 %15, 0
  br i1 %16, label %17, label %24

17:                                               ; preds = %13
  br label %18

18:                                               ; preds = %17
  %19 = call i32 @get_log_level()
  %20 = icmp sge i32 %19, 4
  br i1 %20, label %21, label %22

21:                                               ; preds = %18
  call void (i32, ptr, ...) @log_var(i32 noundef 4, ptr noundef @.str)
  br label %22

22:                                               ; preds = %21, %18
  br label %23

23:                                               ; preds = %22
  br label %24

24:                                               ; preds = %23, %13
  br label %25

25:                                               ; preds = %24
  %26 = load i16, ptr getelementptr inbounds nuw (%struct.slurm_conf_t, ptr @slurm_conf, i32 0, i32 164), align 8
  %27 = zext i16 %26 to i32
  store i32 %27, ptr @timeslicer_seconds, align 4
  %28 = call zeroext i16 @_get_gr_type()
  store i16 %28, ptr @gr_type, align 2
  %29 = call ptr @list_create(ptr noundef @xfree_ptr)
  store ptr %29, ptr @preempt_job_list, align 8
  br label %30

30:                                               ; preds = %25
  call void @llvm.lifetime.start.p0(i64 4, ptr %1) #8
  %31 = call i32 @pthread_mutex_lock(ptr noundef @data_mutex) #8
  store i32 %31, ptr %1, align 4
  %32 = load i32, ptr %1, align 4
  %33 = icmp ne i32 %32, 0
  br i1 %33, label %34, label %37

34:                                               ; preds = %30
  %35 = load i32, ptr %1, align 4
  %36 = call ptr @__errno_location() #9
  store i32 %35, ptr %36, align 4
  call void (ptr, ...) @fatal_abort(ptr noundef @.str.1, ptr noundef @__func__.gs_init) #10
  unreachable

37:                                               ; preds = %30
  call void @llvm.lifetime.end.p0(i64 4, ptr %1) #8
  br label %38

38:                                               ; preds = %37
  call void @_build_parts()
  call void @_scan_slurm_job_list()
  br label %39

39:                                               ; preds = %38
  call void @llvm.lifetime.start.p0(i64 4, ptr %2) #8
  %40 = call i32 @pthread_mutex_unlock(ptr noundef @data_mutex) #8
  store i32 %40, ptr %2, align 4
  %41 = load i32, ptr %2, align 4
  %42 = icmp ne i32 %41, 0
  br i1 %42, label %43, label %46

43:                                               ; preds = %39
  %44 = load i32, ptr %2, align 4
  %45 = call ptr @__errno_location() #9
  store i32 %44, ptr %45, align 4
  call void (ptr, ...) @fatal_abort(ptr noundef @.str.2, ptr noundef @__func__.gs_init) #10
  unreachable

46:                                               ; preds = %39
  call void @llvm.lifetime.end.p0(i64 4, ptr %2) #8
  br label %47

47:                                               ; preds = %46
  call void @_spawn_timeslicer_thread()
  br label %48

48:                                               ; preds = %47
  %49 = load i64, ptr getelementptr inbounds nuw (%struct.slurm_conf_t, ptr @slurm_conf, i32 0, i32 42), align 8
  %50 = and i64 %49, 8192
  %51 = icmp ne i64 %50, 0
  br i1 %51, label %52, label %59

52:                                               ; preds = %48
  br label %53

53:                                               ; preds = %52
  %54 = call i32 @get_log_level()
  %55 = icmp sge i32 %54, 4
  br i1 %55, label %56, label %57

56:                                               ; preds = %53
  call void (i32, ptr, ...) @log_var(i32 noundef 4, ptr noundef @.str.3)
  br label %57

57:                                               ; preds = %56, %53
  br label %58

58:                                               ; preds = %57
  br label %59

59:                                               ; preds = %58, %48
  br label %60

60:                                               ; preds = %7, %11, %59
  ret void
}