; Function Attrs: nounwind uwtable
define dso_local void @gs_init() local_unnamed_addr #0 {
  %1 = alloca %union.pthread_attr_t, align 8
  %2 = load i16, ptr getelementptr inbounds nuw (i8, ptr @slurm_conf, i64 796), align 4
  %3 = icmp sgt i16 %2, -1
  %4 = load i64, ptr @timeslicer_thread_id, align 8
  %5 = icmp ne i64 %4, 0
  %or.cond = select i1 %3, i1 true, i1 %5
  br i1 %or.cond, label %77, label %6

6:                                                ; preds = %0
  %7 = load i64, ptr getelementptr inbounds nuw (i8, ptr @slurm_conf, i64 320), align 8
  %8 = and i64 %7, 8192
  %.not = icmp eq i64 %8, 0
  br i1 %.not, label %13, label %9

9:                                                ; preds = %6
  %10 = tail call i32 @get_log_level() #8
  %11 = icmp sgt i32 %10, 3
  br i1 %11, label %12, label %13

12:                                               ; preds = %9
  tail call void (i32, ptr, ...) @log_var(i32 noundef 4, ptr noundef nonnull @.str) #8
  br label %13

13:                                               ; preds = %6, %9, %12
  %14 = load i16, ptr getelementptr inbounds nuw (i8, ptr @slurm_conf, i64 1080), align 8
  %15 = zext i16 %14 to i32
  store i32 %15, ptr @timeslicer_seconds, align 4
  %16 = load i16, ptr getelementptr inbounds nuw (i8, ptr @slurm_conf, i64 1120), align 8
  %17 = zext i16 %16 to i32
  %18 = and i32 %17, 4
  %.not.i = icmp eq i32 %18, 0
  br i1 %.not.i, label %19, label %_get_gr_type.exit

19:                                               ; preds = %13
  %20 = and i32 %17, 1
  %.not1.i = icmp eq i32 %20, 0
  br i1 %.not1.i, label %24, label %21

21:                                               ; preds = %19
  %22 = load ptr, ptr getelementptr inbounds nuw (i8, ptr @slurm_conf, i64 1416), align 8
  %23 = tail call i32 @xstrcmp(ptr noundef %22, ptr noundef nonnull @.str.17) #8
  %.not3.i = icmp eq i32 %23, 0
  %..i = select i1 %.not3.i, i16 3, i16 4
  br label %_get_gr_type.exit

24:                                               ; preds = %19
  %25 = lshr i16 %16, 1
  %.lobit.i = and i16 %25, 1
  br label %_get_gr_type.exit

_get_gr_type.exit:                                ; preds = %13, %21, %24
  %.0.i = phi i16 [ 2, %13 ], [ %..i, %21 ], [ %.lobit.i, %24 ]
  store i16 %.0.i, ptr @gr_type, align 2
  %26 = tail call ptr @list_create(ptr noundef nonnull @xfree_ptr) #8
  store ptr %26, ptr @preempt_job_list, align 8
  %27 = tail call i32 @pthread_mutex_lock(ptr noundef nonnull @data_mutex) #8
  %.not6 = icmp eq i32 %27, 0
  br i1 %.not6, label %30, label %28

28:                                               ; preds = %_get_gr_type.exit
  %29 = tail call ptr @__errno_location() #9
  store i32 %27, ptr %29, align 4
  tail call void (ptr, ...) @fatal_abort(ptr noundef nonnull @.str.1, ptr noundef nonnull @__func__.gs_init) #10
  unreachable

30:                                               ; preds = %_get_gr_type.exit
  tail call fastcc void @_build_parts()
  tail call fastcc void @_scan_slurm_job_list()
  %31 = tail call i32 @pthread_mutex_unlock(ptr noundef nonnull @data_mutex) #8
  %.not7 = icmp eq i32 %31, 0
  br i1 %.not7, label %34, label %32

32:                                               ; preds = %30
  %33 = tail call ptr @__errno_location() #9
  store i32 %31, ptr %33, align 4
  tail call void (ptr, ...) @fatal_abort(ptr noundef nonnull @.str.2, ptr noundef nonnull @__func__.gs_init) #10
  unreachable

34:                                               ; preds = %30
  %35 = tail call i32 @pthread_mutex_lock(ptr noundef nonnull @thread_flag_mutex) #8
  %.not.i9 = icmp eq i32 %35, 0
  br i1 %.not.i9, label %38, label %36

36:                                               ; preds = %34
  %37 = tail call ptr @__errno_location() #9
  store i32 %35, ptr %37, align 4
  tail call void (ptr, ...) @fatal_abort(ptr noundef nonnull @.str.1, ptr noundef nonnull @__func__._spawn_timeslicer_thread) #10
  unreachable

38:                                               ; preds = %34
  %.b23.i = load i1, ptr @thread_running, align 1
  br i1 %.b23.i, label %39, label %44

39:                                               ; preds = %38
  %40 = tail call i32 (ptr, ...) @error(ptr noundef nonnull @.str.21) #8
  %41 = tail call i32 @pthread_mutex_unlock(ptr noundef nonnull @thread_flag_mutex) #8
  %.not30.i = icmp eq i32 %41, 0
  br i1 %.not30.i, label %_spawn_timeslicer_thread.exit, label %42

42:                                               ; preds = %39
  %43 = tail call ptr @__errno_location() #9
  store i32 %41, ptr %43, align 4
  tail call void (ptr, ...) @fatal_abort(ptr noundef nonnull @.str.2, ptr noundef nonnull @__func__._spawn_timeslicer_thread) #10
  unreachable

44:                                               ; preds = %38
  call void @llvm.lifetime.start.p0(i64 56, ptr nonnull %1) #8
  %45 = call i32 @pthread_attr_init(ptr noundef nonnull %1) #8
  %.not24.i = icmp eq i32 %45, 0
  br i1 %.not24.i, label %48, label %46

46:                                               ; preds = %44
  %47 = tail call ptr @__errno_location() #9
  store i32 %45, ptr %47, align 4
  call void (ptr, ...) @fatal(ptr noundef nonnull @.str.22) #10
  unreachable

48:                                               ; preds = %44
  %49 = call i32 @pthread_attr_setscope(ptr noundef nonnull %1, i32 noundef 0) #8
  %.not25.i = icmp eq i32 %49, 0
  br i1 %.not25.i, label %53, label %50

50:                                               ; preds = %48
  %51 = tail call ptr @__errno_location() #9
  store i32 %49, ptr %51, align 4
  %52 = call i32 (ptr, ...) @error(ptr noundef nonnull @.str.23) #8
  br label %53

53:                                               ; preds = %50, %48
  %54 = call i32 @pthread_attr_setstacksize(ptr noundef nonnull %1, i64 noundef 1048576) #8
  %.not26.i = icmp eq i32 %54, 0
  br i1 %.not26.i, label %58, label %55

55:                                               ; preds = %53
  %56 = tail call ptr @__errno_location() #9
  store i32 %54, ptr %56, align 4
  %57 = call i32 (ptr, ...) @error(ptr noundef nonnull @.str.24) #8
  br label %58

58:                                               ; preds = %55, %53
  %59 = call i32 @pthread_create(ptr noundef nonnull @timeslicer_thread_id, ptr noundef nonnull %1, ptr noundef nonnull @_timeslicer_thread, ptr noundef null) #8
  %.not27.i = icmp eq i32 %59, 0
  br i1 %.not27.i, label %62, label %60

60:                                               ; preds = %58
  %61 = tail call ptr @__errno_location() #9
  store i32 %59, ptr %61, align 4
  call void (ptr, ...) @fatal(ptr noundef nonnull @.str.25, ptr noundef nonnull @__func__._spawn_timeslicer_thread) #10
  unreachable

62:                                               ; preds = %58
  %63 = call i32 @pthread_attr_destroy(ptr noundef nonnull %1) #8
  %.not28.i = icmp eq i32 %63, 0
  br i1 %.not28.i, label %67, label %64

64:                                               ; preds = %62
  %65 = tail call ptr @__errno_location() #9
  store i32 %63, ptr %65, align 4
  %66 = call i32 (ptr, ...) @error(ptr noundef nonnull @.str.26) #8
  br label %67

67:                                               ; preds = %64, %62
  call void @llvm.lifetime.end.p0(i64 56, ptr nonnull %1) #8
  store i1 true, ptr @thread_running, align 1
  %68 = call i32 @pthread_mutex_unlock(ptr noundef nonnull @thread_flag_mutex) #8
  %.not29.i = icmp eq i32 %68, 0
  br i1 %.not29.i, label %_spawn_timeslicer_thread.exit, label %69

69:                                               ; preds = %67
  %70 = tail call ptr @__errno_location() #9
  store i32 %68, ptr %70, align 4
  call void (ptr, ...) @fatal_abort(ptr noundef nonnull @.str.2, ptr noundef nonnull @__func__._spawn_timeslicer_thread) #10
  unreachable

_spawn_timeslicer_thread.exit:                    ; preds = %39, %67
  %71 = load i64, ptr getelementptr inbounds nuw (i8, ptr @slurm_conf, i64 320), align 8
  %72 = and i64 %71, 8192
  %.not8 = icmp eq i64 %72, 0
  br i1 %.not8, label %77, label %73

73:                                               ; preds = %_spawn_timeslicer_thread.exit
  %74 = call i32 @get_log_level() #8
  %75 = icmp sgt i32 %74, 3
  br i1 %75, label %76, label %77

76:                                               ; preds = %73
  call void (i32, ptr, ...) @log_var(i32 noundef 4, ptr noundef nonnull @.str.3) #8
  br label %77

77:                                               ; preds = %_spawn_timeslicer_thread.exit, %73, %76, %0
  ret void
}